target datalayout = "e-m:e-p270:32:32-p271:32:32-p272:64:64-i64:64-i128:128-f80:128-n8:16:32:64-S128"
target triple = "x86_64-pc-linux-gnu"

; Function Attrs: mustprogress nounwind uwtable
define noundef i32 @_Z8rawscoreiii(i32 noundef %0, i32 noundef %1, i32 noundef %2) #4 {
  %4 = alloca i32, align 4
  %5 = alloca i32, align 4
  %6 = alloca i32, align 4
  %7 = alloca i32, align 4
  %8 = alloca i32, align 4
  %9 = alloca i32, align 4
  %10 = alloca i32, align 4
  store i32 %0, ptr %5, align 4
  store i32 %1, ptr %6, align 4
  store i32 %2, ptr %7, align 4
  %11 = load i32, ptr %5, align 4
  %12 = icmp eq i32 %11, -1
  br i1 %12, label %13, label %31

13:                                               ; preds = %3
  %14 = load i32, ptr %7, align 4
  %15 = icmp ne i32 %14, 0
  br i1 %15, label %16, label %20

16:                                               ; preds = %13
  %17 = load i32, ptr %6, align 4
  %18 = mul nsw i32 -300, %17
  %19 = add nsw i32 %18, 100
  store i32 %19, ptr %4, align 4
  br label %99

20:                                               ; preds = %13
  %21 = load i32, ptr %6, align 4
  %22 = icmp sle i32 %21, 3
  br i1 %22, label %23, label %27

23:                                               ; preds = %20
  %24 = load i32, ptr %6, align 4
  %25 = mul nsw i32 -200, %24
  %26 = add nsw i32 %25, 100
  store i32 %26, ptr %4, align 4
  br label %99

27:                                               ; preds = %20
  %28 = load i32, ptr %6, align 4
  %29 = mul nsw i32 -300, %28
  %30 = add nsw i32 %29, 400
  store i32 %30, ptr %4, align 4
  br label %99

31:                                               ; preds = %3
  %32 = load i32, ptr %6, align 4
  %33 = sub nsw i32 %32, 6
  store i32 %33, ptr %9, align 4
  store i32 0, ptr %8, align 4
  %34 = load i32, ptr %5, align 4
  %35 = icmp eq i32 %34, 0
  br i1 %35, label %36, label %44

36:                                               ; preds = %31
  %37 = load i32, ptr %9, align 4
  %38 = mul nsw i32 30, %37
  %39 = add nsw i32 10, %38
  store i32 %39, ptr %10, align 4
  %40 = load i32, ptr %9, align 4
  %41 = icmp sge i32 %40, 3
  br i1 %41, label %42, label %43

42:                                               ; preds = %36
  store i32 1, ptr %8, align 4
  br label %43

43:                                               ; preds = %42, %36
  br label %65

44:                                               ; preds = %31
  %45 = load i32, ptr %5, align 4
  %46 = icmp eq i32 %45, 1
  br i1 %46, label %50, label %47

47:                                               ; preds = %44
  %48 = load i32, ptr %5, align 4
  %49 = icmp eq i32 %48, 2
  br i1 %49, label %50, label %57

50:                                               ; preds = %47, %44
  %51 = load i32, ptr %9, align 4
  %52 = mul nsw i32 30, %51
  store i32 %52, ptr %10, align 4
  %53 = load i32, ptr %9, align 4
  %54 = icmp sge i32 %53, 4
  br i1 %54, label %55, label %56

55:                                               ; preds = %50
  store i32 1, ptr %8, align 4
  br label %56

56:                                               ; preds = %55, %50
  br label %64

57:                                               ; preds = %47
  %58 = load i32, ptr %9, align 4
  %59 = mul nsw i32 20, %58
  store i32 %59, ptr %10, align 4
  %60 = load i32, ptr %9, align 4
  %61 = icmp sge i32 %60, 5
  br i1 %61, label %62, label %63

62:                                               ; preds = %57
  store i32 1, ptr %8, align 4
  br label %63

63:                                               ; preds = %62, %57
  br label %64

64:                                               ; preds = %63, %56
  br label %65

65:                                               ; preds = %64, %43
  %66 = load i32, ptr %8, align 4
  %67 = icmp ne i32 %66, 0
  br i1 %67, label %68, label %74

68:                                               ; preds = %65
  %69 = load i32, ptr %7, align 4
  %70 = icmp ne i32 %69, 0
  %71 = select i1 %70, i32 500, i32 300
  %72 = load i32, ptr %10, align 4
  %73 = add nsw i32 %72, %71
  store i32 %73, ptr %10, align 4
  br label %77

74:                                               ; preds = %65
  %75 = load i32, ptr %10, align 4
  %76 = add nsw i32 %75, 50
  store i32 %76, ptr %10, align 4
  br label %77

77:                                               ; preds = %74, %68
  %78 = load i32, ptr %9, align 4
  %79 = icmp eq i32 %78, 6
  br i1 %79, label %80, label %86

80:                                               ; preds = %77
  %81 = load i32, ptr %7, align 4
  %82 = icmp ne i32 %81, 0
  %83 = select i1 %82, i32 750, i32 500
  %84 = load i32, ptr %10, align 4
  %85 = add nsw i32 %84, %83
  store i32 %85, ptr %10, align 4
  br label %96

86:                                               ; preds = %77
  %87 = load i32, ptr %9, align 4
  %88 = icmp eq i32 %87, 7
  br i1 %88, label %89, label %95

89:                                               ; preds = %86
  %90 = load i32, ptr %7, align 4
  %91 = icmp ne i32 %90, 0
  %92 = select i1 %91, i32 1500, i32 1000
  %93 = load i32, ptr %10, align 4
  %94 = add nsw i32 %93, %92
  store i32 %94, ptr %10, align 4
  br label %95

95:                                               ; preds = %89, %86
  br label %96

96:                                               ; preds = %95, %80
  br label %97

97:                                               ; preds = %96
  %98 = load i32, ptr %10, align 4
  store i32 %98, ptr %4, align 4
  br label %99

99:                                               ; preds = %97, %27, %23, %16
  %100 = load i32, ptr %4, align 4
  ret i32 %100
}