; Function Attrs: mustprogress nofree norecurse nosync nounwind willreturn memory(none) uwtable
define noundef range(i32 -2147483598, -2147483648) i32 @_Z8rawscoreiii(i32 noundef %0, i32 noundef %1, i32 noundef %2) local_unnamed_addr #7 {
  %4 = icmp eq i32 %0, -1
  br i1 %4, label %5, label %17

5:                                                ; preds = %3
  %.not38 = icmp eq i32 %2, 0
  br i1 %.not38, label %9, label %6

6:                                                ; preds = %5
  %7 = mul nsw i32 %1, -300
  %8 = add nsw i32 %7, 100
  br label %37

9:                                                ; preds = %5
  %10 = icmp slt i32 %1, 4
  br i1 %10, label %11, label %14

11:                                               ; preds = %9
  %12 = mul nsw i32 %1, -200
  %13 = add nsw i32 %12, 100
  br label %37

14:                                               ; preds = %9
  %15 = mul nsw i32 %1, -300
  %16 = add nuw nsw i32 %15, 400
  br label %37

17:                                               ; preds = %3
  %18 = add nsw i32 %1, -6
  %19 = icmp eq i32 %0, 0
  br i1 %19, label %20, label %23

20:                                               ; preds = %17
  %21 = mul nsw i32 %18, 30
  %22 = add nsw i32 %21, 10
  br label %28

23:                                               ; preds = %17
  %or.cond = icmp ult i32 %0, 3
  br i1 %or.cond, label %24, label %26

24:                                               ; preds = %23
  %25 = mul nsw i32 %18, 30
  br label %28

26:                                               ; preds = %23
  %27 = mul nsw i32 %18, 20
  br label %28

28:                                               ; preds = %26, %24, %20
  %.sink = phi i32 [ 11, %26 ], [ 10, %24 ], [ 9, %20 ]
  %.0 = phi i32 [ %27, %26 ], [ %25, %24 ], [ %22, %20 ]
  %29 = icmp slt i32 %1, %.sink
  %.not35 = icmp eq i32 %2, 0
  %30 = select i1 %.not35, i32 300, i32 500
  %.pn = select i1 %29, i32 50, i32 %30
  %.1 = add nsw i32 %.0, %.pn
  switch i32 %1, label %37 [
    i32 12, label %31
    i32 13, label %34
  ]

31:                                               ; preds = %28
  %32 = select i1 %.not35, i32 500, i32 750
  %33 = add nsw i32 %.1, %32
  br label %37

34:                                               ; preds = %28
  %35 = select i1 %.not35, i32 1000, i32 1500
  %36 = add nsw i32 %.1, %35
  br label %37

37:                                               ; preds = %34, %31, %28, %14, %11, %6
  %.029 = phi i32 [ %8, %6 ], [ %13, %11 ], [ %16, %14 ], [ %33, %31 ], [ %36, %34 ], [ %.1, %28 ]
  ret i32 %.029
}